; Function Attrs: mustprogress nofree norecurse nosync nounwind willreturn memory(read, inaccessiblemem: none) uwtable
define noundef zeroext i1 @_ZNK10open_spiel11pathfinding16PathfindingState24AllPlayersOnDestinationsEv(ptr nocapture noundef nonnull readonly align 8 dereferenceable(264) %0) local_unnamed_addr #7 align 2 {
  %2 = getelementptr inbounds nuw i8, ptr %0, i64 28
  %3 = load i32, ptr %2, align 4
  %4 = icmp slt i32 %3, 1
  br i1 %4, label %._crit_edge, label %.lr.ph

.lr.ph:                                           ; preds = %1
  %5 = getelementptr inbounds nuw i8, ptr %0, i64 72
  %6 = load ptr, ptr %5, align 8
  %7 = getelementptr inbounds nuw i8, ptr %6, i64 64
  %8 = load ptr, ptr %7, align 8
  %9 = getelementptr inbounds nuw i8, ptr %0, i64 120
  %10 = load ptr, ptr %9, align 8
  %wide.trip.count = zext nneg i32 %3 to i64
  br label %11

11:                                               ; preds = %11, %.lr.ph
  %indvars.iv = phi i64 [ 0, %.lr.ph ], [ %indvars.iv.next, %11 ]
  %12 = getelementptr inbounds %"struct.std::pair.34", ptr %8, i64 %indvars.iv
  %13 = load i32, ptr %12, align 4
  %14 = sext i32 %13 to i64
  %15 = getelementptr inbounds %"class.std::vector.29", ptr %10, i64 %14
  %16 = getelementptr inbounds nuw i8, ptr %12, i64 4
  %17 = load i32, ptr %16, align 4
  %18 = sext i32 %17 to i64
  %19 = load ptr, ptr %15, align 8
  %20 = getelementptr inbounds i32, ptr %19, i64 %18
  %21 = load i32, ptr %20, align 4
  %22 = zext i32 %21 to i64
  %.not = icmp eq i64 %indvars.iv, %22
  %indvars.iv.next = add nuw nsw i64 %indvars.iv, 1
  %exitcond.not = icmp ne i64 %indvars.iv.next, %wide.trip.count
  %or.cond.not = select i1 %.not, i1 %exitcond.not, i1 false
  br i1 %or.cond.not, label %11, label %._crit_edge, !llvm.loop !8

._crit_edge:                                      ; preds = %11, %1
  %.lcssa = phi i1 [ true, %1 ], [ %.not, %11 ]
  ret i1 %.lcssa
}